target datalayout = "e-m:e-p270:32:32-p271:32:32-p272:64:64-i64:64-i128:128-f80:128-n8:16:32:64-S128"
target triple = "x86_64-pc-linux-gnu"

%class.cmUVProcessChainBuilder = type { %"struct.std::array", %"class.std::vector", %"class.std::__cxx11::basic_string", i8, ptr }
%"struct.std::array" = type { [3 x %"struct.cmUVProcessChainBuilder::StdioConfiguration"] }
%"struct.cmUVProcessChainBuilder::StdioConfiguration" = type { i32, i32 }
%"class.std::vector" = type { %"struct.std::_Vector_base" }
%"struct.std::_Vector_base" = type { %"struct.std::_Vector_base<cmUVProcessChainBuilder::ProcessConfiguration, std::allocator<cmUVProcessChainBuilder::ProcessConfiguration>>::_Vector_impl" }
%"struct.std::_Vector_base<cmUVProcessChainBuilder::ProcessConfiguration, std::allocator<cmUVProcessChainBuilder::ProcessConfiguration>>::_Vector_impl" = type { %"struct.std::_Vector_base<cmUVProcessChainBuilder::ProcessConfiguration, std::allocator<cmUVProcessChainBuilder::ProcessConfiguration>>::_Vector_impl_data" }
%"struct.std::_Vector_base<cmUVProcessChainBuilder::ProcessConfiguration, std::allocator<cmUVProcessChainBuilder::ProcessConfiguration>>::_Vector_impl_data" = type { ptr, ptr, ptr }
%"class.std::__cxx11::basic_string" = type { %"struct.std::__cxx11::basic_string<char>::_Alloc_hider", i64, %union.anon }
%"struct.std::__cxx11::basic_string<char>::_Alloc_hider" = type { ptr }
%union.anon = type { i64, [8 x i8] }
%"struct.cmUVProcessChainBuilder::ProcessConfiguration" = type { %"class.std::vector.3" }
%"class.std::vector.3" = type { %"struct.std::_Vector_base.4" }
%"struct.std::_Vector_base.4" = type { %"struct.std::_Vector_base<std::__cxx11::basic_string<char>, std::allocator<std::__cxx11::basic_string<char>>>::_Vector_impl" }
%"struct.std::_Vector_base<std::__cxx11::basic_string<char>, std::allocator<std::__cxx11::basic_string<char>>>::_Vector_impl" = type { %"struct.std::_Vector_base<std::__cxx11::basic_string<char>, std::allocator<std::__cxx11::basic_string<char>>>::_Vector_impl_data" }
%"struct.std::_Vector_base<std::__cxx11::basic_string<char>, std::allocator<std::__cxx11::basic_string<char>>>::_Vector_impl_data" = type { ptr, ptr, ptr }
%class.cmUVProcessChain = type { %"class.std::unique_ptr" }
%"class.std::unique_ptr" = type { %"struct.std::__uniq_ptr_data" }
%"struct.std::__uniq_ptr_data" = type { %"class.std::__uniq_ptr_impl" }
%"class.std::__uniq_ptr_impl" = type { %"class.std::tuple" }
%"class.std::tuple" = type { %"struct.std::_Tuple_impl" }
%"struct.std::_Tuple_impl" = type { %"struct.std::_Head_base.13" }
%"struct.std::_Head_base.13" = type { ptr }
%"struct.cmUVProcessChain::InternalData" = type { ptr, i8, %"class.cm::uv_loop_ptr", ptr, %"struct.cmUVProcessChain::InternalData::StreamData", %"struct.cmUVProcessChain::InternalData::StreamData", %"struct.cmUVProcessChain::InternalData::StreamData", %"struct.cm::uv_pipe_ptr", %"struct.cm::uv_pipe_ptr", i32, %"class.std::vector.18" }
%"class.cm::uv_loop_ptr" = type { %"class.std::shared_ptr" }
%"class.std::shared_ptr" = type { %"class.std::__shared_ptr" }
%"class.std::__shared_ptr" = type { ptr, %"class.std::__shared_count" }
%"class.std::__shared_count" = type { ptr }
%"struct.cmUVProcessChain::InternalData::StreamData" = type { i32, %struct.uv_stdio_container_s }
%struct.uv_stdio_container_s = type { i32, %union.anon.14 }
%union.anon.14 = type { ptr }
%"struct.cm::uv_pipe_ptr" = type { %"class.cm::uv_handle_ptr_" }
%"class.cm::uv_handle_ptr_" = type { %"class.cm::uv_handle_ptr_base_" }
%"class.cm::uv_handle_ptr_base_" = type { %"class.std::shared_ptr.15" }
%"class.std::shared_ptr.15" = type { %"class.std::__shared_ptr.16" }
%"class.std::__shared_ptr.16" = type { ptr, %"class.std::__shared_count" }
%"class.std::vector.18" = type { %"struct.std::_Vector_base.19" }
%"struct.std::_Vector_base.19" = type { %"struct.std::_Vector_base<std::unique_ptr<cmUVProcessChain::InternalData::ProcessData>, std::allocator<std::unique_ptr<cmUVProcessChain::InternalData::ProcessData>>>::_Vector_impl" }
%"struct.std::_Vector_base<std::unique_ptr<cmUVProcessChain::InternalData::ProcessData>, std::allocator<std::unique_ptr<cmUVProcessChain::InternalData::ProcessData>>>::_Vector_impl" = type { %"struct.std::_Vector_base<std::unique_ptr<cmUVProcessChain::InternalData::ProcessData>, std::allocator<std::unique_ptr<cmUVProcessChain::InternalData::ProcessData>>>::_Vector_impl_data" }
%"struct.std::_Vector_base<std::unique_ptr<cmUVProcessChain::InternalData::ProcessData>, std::allocator<std::unique_ptr<cmUVProcessChain::InternalData::ProcessData>>>::_Vector_impl_data" = type { ptr, ptr, ptr }

@_ZN16cmUVProcessChainC1Ev = dso_local unnamed_addr alias void (ptr), ptr @_ZN16cmUVProcessChainC2Ev
@_ZN16cmUVProcessChainD1Ev = dso_local unnamed_addr alias void (ptr), ptr @_ZN16cmUVProcessChainD2Ev

; Function Attrs: mustprogress nounwind uwtable
define linkonce_odr dso_local noundef nonnull align 8 dereferenceable(8) ptr @_ZNSt10_Head_baseILm0EPN16cmUVProcessChain12InternalDataELb0EE7_M_headERKS3_(ptr noundef nonnull align 8 dereferenceable(8) %0) #0 comdat align 2 {
  %2 = alloca ptr, align 8
  store ptr %0, ptr %2, align 8
  %3 = load ptr, ptr %2, align 8
  %4 = getelementptr inbounds %"struct.std::_Head_base.13", ptr %3, i32 0, i32 0
  ret ptr %4
}

; Function Attrs: mustprogress nounwind uwtable
define linkonce_odr dso_local noundef nonnull align 8 dereferenceable(8) ptr @_ZNSt11_Tuple_implILm0EJPN16cmUVProcessChain12InternalDataESt14default_deleteIS1_EEE7_M_headERKS5_(ptr noundef nonnull align 8 dereferenceable(8) %0) #0 comdat align 2 {
  %2 = alloca ptr, align 8
  store ptr %0, ptr %2, align 8
  %3 = load ptr, ptr %2, align 8
  %4 = call noundef nonnull align 8 dereferenceable(8) ptr @_ZNSt10_Head_baseILm0EPN16cmUVProcessChain12InternalDataELb0EE7_M_headERKS3_(ptr noundef nonnull align 8 dereferenceable(8) %3) #12
  ret ptr %4
}

; Function Attrs: mustprogress nounwind uwtable
define linkonce_odr dso_local noundef nonnull align 8 dereferenceable(8) ptr @_ZSt12__get_helperILm0EPN16cmUVProcessChain12InternalDataEJSt14default_deleteIS1_EEERKT0_RKSt11_Tuple_implIXT_EJS5_DpT1_EE(ptr noundef nonnull align 8 dereferenceable(8) %0) #0 comdat {
  %2 = alloca ptr, align 8
  store ptr %0, ptr %2, align 8
  %3 = load ptr, ptr %2, align 8
  %4 = call noundef nonnull align 8 dereferenceable(8) ptr @_ZNSt11_Tuple_implILm0EJPN16cmUVProcessChain12InternalDataESt14default_deleteIS1_EEE7_M_headERKS5_(ptr noundef nonnull align 8 dereferenceable(8) %3) #12
  ret ptr %4
}

; Function Attrs: mustprogress nounwind uwtable
define linkonce_odr dso_local noundef nonnull align 8 dereferenceable(8) ptr @_ZSt3getILm0EJPN16cmUVProcessChain12InternalDataESt14default_deleteIS1_EEERKNSt13tuple_elementIXT_ESt5tupleIJDpT0_EEE4typeERKS9_(ptr noundef nonnull align 8 dereferenceable(8) %0) #0 comdat {
  %2 = alloca ptr, align 8
  store ptr %0, ptr %2, align 8
  %3 = load ptr, ptr %2, align 8
  %4 = call noundef nonnull align 8 dereferenceable(8) ptr @_ZSt12__get_helperILm0EPN16cmUVProcessChain12InternalDataEJSt14default_deleteIS1_EEERKT0_RKSt11_Tuple_implIXT_EJS5_DpT1_EE(ptr noundef nonnull align 8 dereferenceable(8) %3) #12
  ret ptr %4
}

; Function Attrs: mustprogress nounwind uwtable
define linkonce_odr dso_local noundef ptr @_ZNKSt15__uniq_ptr_implIN16cmUVProcessChain12InternalDataESt14default_deleteIS1_EE6_M_ptrEv(ptr noundef nonnull align 8 dereferenceable(8) %0) #0 comdat align 2 {
  %2 = alloca ptr, align 8
  store ptr %0, ptr %2, align 8
  %3 = load ptr, ptr %2, align 8
  %4 = getelementptr inbounds %"class.std::__uniq_ptr_impl", ptr %3, i32 0, i32 0
  %5 = call noundef nonnull align 8 dereferenceable(8) ptr @_ZSt3getILm0EJPN16cmUVProcessChain12InternalDataESt14default_deleteIS1_EEERKNSt13tuple_elementIXT_ESt5tupleIJDpT0_EEE4typeERKS9_(ptr noundef nonnull align 8 dereferenceable(8) %4) #12
  %6 = load ptr, ptr %5, align 8
  ret ptr %6
}

; Function Attrs: mustprogress nounwind uwtable
define linkonce_odr dso_local noundef ptr @_ZNKSt10unique_ptrIN16cmUVProcessChain12InternalDataESt14default_deleteIS1_EE3getEv(ptr noundef nonnull align 8 dereferenceable(8) %0) #0 comdat align 2 {
  %2 = alloca ptr, align 8
  store ptr %0, ptr %2, align 8
  %3 = load ptr, ptr %2, align 8
  %4 = getelementptr inbounds %"class.std::unique_ptr", ptr %3, i32 0, i32 0
  %5 = call noundef ptr @_ZNKSt15__uniq_ptr_implIN16cmUVProcessChain12InternalDataESt14default_deleteIS1_EE6_M_ptrEv(ptr noundef nonnull align 8 dereferenceable(8) %4) #12
  ret ptr %5
}

; Function Attrs: mustprogress uwtable
define dso_local void @_ZN16cmUVProcessChain12InternalData6FinishEv(ptr noundef nonnull align 8 dereferenceable(176) %0) #2 align 2 {
  %2 = alloca ptr, align 8
  store ptr %0, ptr %2, align 8
  %3 = load ptr, ptr %2, align 8
  %4 = getelementptr inbounds %"struct.cmUVProcessChain::InternalData", ptr %3, i32 0, i32 7
  call void @_ZN2cm19uv_handle_ptr_base_I9uv_pipe_sE5resetEv(ptr noundef nonnull align 8 dereferenceable(16) %4)
  %5 = getelementptr inbounds %"struct.cmUVProcessChain::InternalData", ptr %3, i32 0, i32 8
  call void @_ZN2cm19uv_handle_ptr_base_I9uv_pipe_sE5resetEv(ptr noundef nonnull align 8 dereferenceable(16) %5)
  %6 = getelementptr inbounds %"struct.cmUVProcessChain::InternalData", ptr %3, i32 0, i32 1
  store i8 1, ptr %6, align 8
  ret void
}

; Function Attrs: mustprogress nounwind uwtable
define linkonce_odr dso_local noundef nonnull align 8 dereferenceable(24) ptr @_ZNKSt6vectorIN23cmUVProcessChainBuilder20ProcessConfigurationESaIS1_EEixEm(ptr noundef nonnull align 8 dereferenceable(24) %0, i64 noundef %1) #0 comdat align 2 {
  %3 = alloca ptr, align 8
  %4 = alloca i64, align 8
  store ptr %0, ptr %3, align 8
  store i64 %1, ptr %4, align 8
  %5 = load ptr, ptr %3, align 8
  %6 = getelementptr inbounds %"struct.std::_Vector_base", ptr %5, i32 0, i32 0
  %7 = getelementptr inbounds %"struct.std::_Vector_base<cmUVProcessChainBuilder::ProcessConfiguration, std::allocator<cmUVProcessChainBuilder::ProcessConfiguration>>::_Vector_impl_data", ptr %6, i32 0, i32 0
  %8 = load ptr, ptr %7, align 8
  %9 = load i64, ptr %4, align 8
  %10 = getelementptr inbounds %"struct.cmUVProcessChainBuilder::ProcessConfiguration", ptr %8, i64 %9
  ret ptr %10
}

; Function Attrs: mustprogress nounwind uwtable
define linkonce_odr dso_local noundef i64 @_ZNKSt6vectorIN23cmUVProcessChainBuilder20ProcessConfigurationESaIS1_EE4sizeEv(ptr noundef nonnull align 8 dereferenceable(24) %0) #0 comdat align 2 {
  %2 = alloca ptr, align 8
  store ptr %0, ptr %2, align 8
  %3 = load ptr, ptr %2, align 8
  %4 = getelementptr inbounds %"struct.std::_Vector_base", ptr %3, i32 0, i32 0
  %5 = getelementptr inbounds %"struct.std::_Vector_base<cmUVProcessChainBuilder::ProcessConfiguration, std::allocator<cmUVProcessChainBuilder::ProcessConfiguration>>::_Vector_impl_data", ptr %4, i32 0, i32 1
  %6 = load ptr, ptr %5, align 8
  %7 = getelementptr inbounds %"struct.std::_Vector_base", ptr %3, i32 0, i32 0
  %8 = getelementptr inbounds %"struct.std::_Vector_base<cmUVProcessChainBuilder::ProcessConfiguration, std::allocator<cmUVProcessChainBuilder::ProcessConfiguration>>::_Vector_impl_data", ptr %7, i32 0, i32 0
  %9 = load ptr, ptr %8, align 8
  %10 = ptrtoint ptr %6 to i64
  %11 = ptrtoint ptr %9 to i64
  %12 = sub i64 %10, %11
  %13 = sdiv exact i64 %12, 24
  ret i64 %13
}

; Function Attrs: mustprogress nounwind uwtable
define linkonce_odr dso_local noundef ptr @_ZNKSt10unique_ptrIN16cmUVProcessChain12InternalDataESt14default_deleteIS1_EEptEv(ptr noundef nonnull align 8 dereferenceable(8) %0) #0 comdat align 2 {
  %2 = alloca ptr, align 8
  store ptr %0, ptr %2, align 8
  %3 = load ptr, ptr %2, align 8
  %4 = call noundef ptr @_ZNKSt10unique_ptrIN16cmUVProcessChain12InternalDataESt14default_deleteIS1_EE3getEv(ptr noundef nonnull align 8 dereferenceable(8) %3) #12
  ret ptr %4
}

; Function Attrs: mustprogress uwtable
define dso_local void @_ZNK23cmUVProcessChainBuilder5StartEv(ptr dead_on_unwind noalias writable sret(%class.cmUVProcessChain) align 8 %0, ptr noundef nonnull align 8 dereferenceable(96) %1) #2 align 2 personality ptr @__gxx_personality_v0 {
  %3 = alloca ptr, align 8
  %4 = alloca ptr, align 8
  %5 = alloca i1, align 1
  %6 = alloca ptr, align 8
  %7 = alloca i32, align 4
  %8 = alloca i32, align 4
  %9 = alloca i64, align 8
  store ptr %0, ptr %3, align 8
  store ptr %1, ptr %4, align 8
  %10 = load ptr, ptr %4, align 8
  store i1 false, ptr %5, align 1
  call void @_ZN16cmUVProcessChainC1Ev(ptr noundef nonnull align 8 dereferenceable(8) %0)
  %11 = getelementptr inbounds %class.cmUVProcessChain, ptr %0, i32 0, i32 0
  %12 = call noundef ptr @_ZNKSt10unique_ptrIN16cmUVProcessChain12InternalDataESt14default_deleteIS1_EEptEv(ptr noundef nonnull align 8 dereferenceable(8) %11) #12
  %13 = invoke noundef zeroext i1 @_ZN16cmUVProcessChain12InternalData7PrepareEPK23cmUVProcessChainBuilder(ptr noundef nonnull align 8 dereferenceable(176) %12, ptr noundef %10)
          to label %14 unwind label %16

14:                                               ; preds = %2
  br i1 %13, label %20, label %15

15:                                               ; preds = %14
  store i1 true, ptr %5, align 1
  store i32 1, ptr %8, align 4
  br label %48

16:                                               ; preds = %44, %26, %2
  %17 = landingpad { ptr, i32 }
          cleanup
  %18 = extractvalue { ptr, i32 } %17, 0
  store ptr %18, ptr %6, align 8
  %19 = extractvalue { ptr, i32 } %17, 1
  store i32 %19, ptr %7, align 4
  call void @_ZN16cmUVProcessChainD1Ev(ptr noundef nonnull align 8 dereferenceable(8) %0) #12
  br label %52

20:                                               ; preds = %14
  store i64 0, ptr %9, align 8
  br label %21

21:                                               ; preds = %41, %20
  %22 = load i64, ptr %9, align 8
  %23 = getelementptr inbounds %class.cmUVProcessChainBuilder, ptr %10, i32 0, i32 1
  %24 = call noundef i64 @_ZNKSt6vectorIN23cmUVProcessChainBuilder20ProcessConfigurationESaIS1_EE4sizeEv(ptr noundef nonnull align 8 dereferenceable(24) %23) #12
  %25 = icmp ult i64 %22, %24
  br i1 %25, label %26, label %44

26:                                               ; preds = %21
  %27 = getelementptr inbounds %class.cmUVProcessChain, ptr %0, i32 0, i32 0
  %28 = call noundef ptr @_ZNKSt10unique_ptrIN16cmUVProcessChain12InternalDataESt14default_deleteIS1_EEptEv(ptr noundef nonnull align 8 dereferenceable(8) %27) #12
  %29 = load i64, ptr %9, align 8
  %30 = getelementptr inbounds %class.cmUVProcessChainBuilder, ptr %10, i32 0, i32 1
  %31 = load i64, ptr %9, align 8
  %32 = call noundef nonnull align 8 dereferenceable(24) ptr @_ZNKSt6vectorIN23cmUVProcessChainBuilder20ProcessConfigurationESaIS1_EEixEm(ptr noundef nonnull align 8 dereferenceable(24) %30, i64 noundef %31) #12
  %33 = load i64, ptr %9, align 8
  %34 = icmp eq i64 %33, 0
  %35 = load i64, ptr %9, align 8
  %36 = getelementptr inbounds %class.cmUVProcessChainBuilder, ptr %10, i32 0, i32 1
  %37 = call noundef i64 @_ZNKSt6vectorIN23cmUVProcessChainBuilder20ProcessConfigurationESaIS1_EE4sizeEv(ptr noundef nonnull align 8 dereferenceable(24) %36) #12
  %38 = sub i64 %37, 1
  %39 = icmp eq i64 %35, %38
  invoke void @_ZN16cmUVProcessChain12InternalData12SpawnProcessEmRKN23cmUVProcessChainBuilder20ProcessConfigurationEbb(ptr noundef nonnull align 8 dereferenceable(176) %28, i64 noundef %29, ptr noundef nonnull align 8 dereferenceable(24) %32, i1 noundef zeroext %34, i1 noundef zeroext %39)
          to label %40 unwind label %16

40:                                               ; preds = %26
  br label %41

41:                                               ; preds = %40
  %42 = load i64, ptr %9, align 8
  %43 = add i64 %42, 1
  store i64 %43, ptr %9, align 8
  br label %21, !llvm.loop !5

44:                                               ; preds = %21
  %45 = getelementptr inbounds %class.cmUVProcessChain, ptr %0, i32 0, i32 0
  %46 = call noundef ptr @_ZNKSt10unique_ptrIN16cmUVProcessChain12InternalDataESt14default_deleteIS1_EEptEv(ptr noundef nonnull align 8 dereferenceable(8) %45) #12
  invoke void @_ZN16cmUVProcessChain12InternalData6FinishEv(ptr noundef nonnull align 8 dereferenceable(176) %46)
          to label %47 unwind label %16

47:                                               ; preds = %44
  store i1 true, ptr %5, align 1
  store i32 1, ptr %8, align 4
  br label %48

48:                                               ; preds = %47, %15
  %49 = load i1, ptr %5, align 1
  br i1 %49, label %51, label %50

50:                                               ; preds = %48
  call void @_ZN16cmUVProcessChainD1Ev(ptr noundef nonnull align 8 dereferenceable(8) %0) #12
  br label %51

51:                                               ; preds = %50, %48
  ret void

52:                                               ; preds = %16
  %53 = load ptr, ptr %6, align 8
  %54 = load i32, ptr %7, align 4
  %55 = insertvalue { ptr, i32 } poison, ptr %53, 0
  %56 = insertvalue { ptr, i32 } %55, i32 %54, 1
  resume { ptr, i32 } %56
}