; Function Attrs: mustprogress uwtable
define dso_local void @_ZNK23cmUVProcessChainBuilder5StartEv(ptr dead_on_unwind noalias writable sret(%class.cmUVProcessChain) align 8 captures(none) %0, ptr noundef nonnull align 8 dereferenceable(96) %1) local_unnamed_addr #2 align 2 personality ptr @__gxx_personality_v0 {
  tail call void @llvm.experimental.noalias.scope.decl(metadata !11)
  %3 = tail call noalias noundef nonnull dereferenceable(176) ptr @_Znwm(i64 noundef 176) #26, !noalias !11
  %4 = getelementptr inbounds nuw i8, ptr %3, i64 40
  tail call void @llvm.memset.p0.i64(ptr noundef nonnull align 8 dereferenceable(176) %3, i8 0, i64 176, i1 false), !noalias !11
  store i32 -1, ptr %4, align 8, !noalias !11
  %5 = getelementptr inbounds nuw i8, ptr %3, i64 64
  store i32 -1, ptr %5, align 8, !noalias !11
  %6 = getelementptr inbounds nuw i8, ptr %3, i64 88
  store i32 -1, ptr %6, align 8, !noalias !11
  %7 = getelementptr inbounds nuw i8, ptr %3, i64 112
  invoke void @_ZN2cm19uv_handle_ptr_base_I9uv_pipe_sEC2Ev(ptr noundef nonnull align 8 dereferenceable(16) %7)
          to label %_ZN2cm11uv_pipe_ptrC2Ev.exit.i.i.i unwind label %9, !noalias !11

_ZN2cm11uv_pipe_ptrC2Ev.exit.i.i.i:               ; preds = %2
  %8 = getelementptr inbounds nuw i8, ptr %3, i64 128
  invoke void @_ZN2cm19uv_handle_ptr_base_I9uv_pipe_sEC2Ev(ptr noundef nonnull align 8 dereferenceable(16) %8)
          to label %_ZN16cmUVProcessChainC2Ev.exit unwind label %11, !noalias !11

9:                                                ; preds = %2
  %10 = landingpad { ptr, i32 }
          cleanup
  br label %.body.i.i

11:                                               ; preds = %_ZN2cm11uv_pipe_ptrC2Ev.exit.i.i.i
  %12 = landingpad { ptr, i32 }
          cleanup
  tail call void @_ZN2cm19uv_handle_ptr_base_I9uv_pipe_sED2Ev(ptr noundef nonnull align 8 dereferenceable(16) %7) #22, !noalias !11
  br label %.body.i.i

common.resume:                                    ; preds = %26, %.body.i.i
  %common.resume.op = phi { ptr, i32 } [ %.pn.i.i.i, %.body.i.i ], [ %lpad.phi, %26 ]
  resume { ptr, i32 } %common.resume.op

.body.i.i:                                        ; preds = %11, %9
  %.pn.i.i.i = phi { ptr, i32 } [ %12, %11 ], [ %10, %9 ]
  %13 = getelementptr inbounds nuw i8, ptr %3, i64 16
  tail call void @_ZN2cm11uv_loop_ptrD2Ev(ptr noundef nonnull align 8 dereferenceable(16) %13) #22, !noalias !11
  tail call void @_ZdlPv(ptr noundef nonnull %3) #23, !noalias !11
  br label %common.resume

_ZN16cmUVProcessChainC2Ev.exit:                   ; preds = %_ZN2cm11uv_pipe_ptrC2Ev.exit.i.i.i
  %14 = getelementptr inbounds nuw i8, ptr %3, i64 144
  store i32 0, ptr %14, align 8, !noalias !11
  %15 = getelementptr inbounds nuw i8, ptr %3, i64 152
  tail call void @llvm.memset.p0.i64(ptr noundef nonnull align 8 dereferenceable(24) %15, i8 0, i64 24, i1 false), !noalias !11
  store ptr %3, ptr %0, align 8, !alias.scope !11
  %16 = invoke noundef zeroext i1 @_ZN16cmUVProcessChain12InternalData7PrepareEPK23cmUVProcessChainBuilder(ptr noundef nonnull align 8 dereferenceable(176) %3, ptr noundef nonnull %1)
          to label %17 unwind label %.loopexit.split-lp

17:                                               ; preds = %_ZN16cmUVProcessChainC2Ev.exit
  br i1 %16, label %.preheader, label %43

.preheader:                                       ; preds = %17
  %18 = getelementptr inbounds nuw i8, ptr %1, i64 24
  %19 = getelementptr inbounds nuw i8, ptr %1, i64 32
  %20 = load ptr, ptr %19, align 8
  %21 = load ptr, ptr %18, align 8
  %.not = icmp eq ptr %20, %21
  br i1 %.not, label %._crit_edge, label %.lr.ph.preheader

.lr.ph.preheader:                                 ; preds = %.preheader
  %22 = ptrtoint ptr %20 to i64
  %23 = ptrtoint ptr %21 to i64
  %24 = sub i64 %22, %23
  %25 = sdiv exact i64 %24, 24
  br label %.lr.ph

.loopexit:                                        ; preds = %.lr.ph
  %lpad.loopexit = landingpad { ptr, i32 }
          cleanup
  br label %26

.loopexit.split-lp:                               ; preds = %_ZN16cmUVProcessChainC2Ev.exit, %._crit_edge, %.noexc
  %lpad.loopexit.split-lp = landingpad { ptr, i32 }
          cleanup
  br label %26

26:                                               ; preds = %.loopexit.split-lp, %.loopexit
  %lpad.phi = phi { ptr, i32 } [ %lpad.loopexit, %.loopexit ], [ %lpad.loopexit.split-lp, %.loopexit.split-lp ]
  tail call void @_ZN16cmUVProcessChainD2Ev(ptr noundef nonnull align 8 dereferenceable(8) %0) #22
  br label %common.resume

.lr.ph:                                           ; preds = %.lr.ph.preheader, %33
  %27 = phi i64 [ %40, %33 ], [ %25, %.lr.ph.preheader ]
  %28 = phi ptr [ %36, %33 ], [ %21, %.lr.ph.preheader ]
  %.011 = phi i64 [ %34, %33 ], [ 0, %.lr.ph.preheader ]
  %29 = getelementptr inbounds %"struct.cmUVProcessChainBuilder::ProcessConfiguration", ptr %28, i64 %.011
  %30 = icmp eq i64 %.011, 0
  %31 = add nsw i64 %27, -1
  %32 = icmp eq i64 %.011, %31
  invoke void @_ZN16cmUVProcessChain12InternalData12SpawnProcessEmRKN23cmUVProcessChainBuilder20ProcessConfigurationEbb(ptr noundef nonnull align 8 dereferenceable(176) %3, i64 noundef %.011, ptr noundef nonnull align 8 dereferenceable(24) %29, i1 noundef zeroext %30, i1 noundef zeroext %32)
          to label %33 unwind label %.loopexit

33:                                               ; preds = %.lr.ph
  %34 = add nuw i64 %.011, 1
  %35 = load ptr, ptr %19, align 8
  %36 = load ptr, ptr %18, align 8
  %37 = ptrtoint ptr %35 to i64
  %38 = ptrtoint ptr %36 to i64
  %39 = sub i64 %37, %38
  %40 = sdiv exact i64 %39, 24
  %41 = icmp ult i64 %34, %40
  br i1 %41, label %.lr.ph, label %._crit_edge, !llvm.loop !14

._crit_edge:                                      ; preds = %33, %.preheader
  invoke void @_ZN2cm19uv_handle_ptr_base_I9uv_pipe_sE5resetEv(ptr noundef nonnull align 8 dereferenceable(16) %7)
          to label %.noexc unwind label %.loopexit.split-lp

.noexc:                                           ; preds = %._crit_edge
  invoke void @_ZN2cm19uv_handle_ptr_base_I9uv_pipe_sE5resetEv(ptr noundef nonnull align 8 dereferenceable(16) %8)
          to label %_ZN16cmUVProcessChain12InternalData6FinishEv.exit unwind label %.loopexit.split-lp

_ZN16cmUVProcessChain12InternalData6FinishEv.exit: ; preds = %.noexc
  %42 = getelementptr inbounds nuw i8, ptr %3, i64 8
  store i8 1, ptr %42, align 8
  br label %43

43:                                               ; preds = %_ZN16cmUVProcessChain12InternalData6FinishEv.exit, %17
  ret void
}